(dp1
S'WT'
p2
(dp3
S'Striatum'
p4
(dp5
S'GPe'
p6
(dp7
S'tau'
p8
F0.5
sS't_delay'
p9
F5
sS'w'
F1
ssS'SNR'
p10
(dp11
g8
F0.5
sg9
F1
sS'w'
F1
sssg6
(dp12
S'STN'
p13
(dp14
S'tau'
p15
F0.5
sS't_delay'
p16
F1
sS'w'
F1
sssS'STN'
p17
(dp18
g6
(dp19
g8
F0.5
sg9
F1
sS'w'
F1
ssg10
(dp20
g8
F0.5
sg9
F1
sS'w'
F1
sssg10
(dp21
S'Th'
p22
(dp23
g8
F0.5
sg9
F5
sS'w'
F1
sssS'Cortex'
p24
(dp25
g17
(dp26
g8
F0.5
sg9
F1.5
sS'w'
F1
ssg4
(dp27
g8
F0.5
sg9
F4.5
sS'w'
F1
sssg22
(dp28
g24
(dp29
g8
F0.5
sg9
F1
sS'w'
F1
ssssS'I0'
p30
(dp31
g4
F1.0000000000000001e-05
sg6
F3
sg17
F3
sg10
F1
sg24
F0.0001
sg22
F0.01
ssS'ext_stim'
p32
(dp33
S'max_ampl_stim'
p34
F1
ssS'tauEPSC'
p35
F1
s.